target datalayout = "e-m:e-p270:32:32-p271:32:32-p272:64:64-i64:64-i128:128-f80:128-n8:16:32:64-S128"
target triple = "x86_64-pc-linux-gnu"

%struct._rio = type { ptr, ptr, ptr, ptr, ptr, i64, i64, i64, i64, %union.anon }
%union.anon = type { %struct.anon.2 }
%struct.anon.2 = type { ptr, i64, ptr, i64, i64 }

@R_NegInf = external global double, align 8
@R_PosInf = external global double, align 8
@R_Nan = external global double, align 8
@.str.16 = private unnamed_addr constant [4 x i8] c"%lg\00", align 1

; Function Attrs: inlinehint nounwind uwtable
define internal i64 @rioRead(ptr noundef %0, ptr noundef %1, i64 noundef %2) #6 {
  %4 = alloca i64, align 8
  %5 = alloca ptr, align 8
  %6 = alloca ptr, align 8
  %7 = alloca i64, align 8
  %8 = alloca i64, align 8
  %9 = alloca i32, align 4
  store ptr %0, ptr %5, align 8, !tbaa !53
  store ptr %1, ptr %6, align 8, !tbaa !55
  store i64 %2, ptr %7, align 8, !tbaa !56
  %10 = load ptr, ptr %5, align 8, !tbaa !53
  %11 = getelementptr inbounds nuw %struct._rio, ptr %10, i32 0, i32 6
  %12 = load i64, ptr %11, align 8, !tbaa !57
  %13 = and i64 %12, 5
  %14 = icmp ne i64 %13, 0
  br i1 %14, label %15, label %16

15:                                               ; preds = %3
  store i64 0, ptr %4, align 8
  br label %80

16:                                               ; preds = %3
  br label %17

17:                                               ; preds = %78, %16
  %18 = load i64, ptr %7, align 8, !tbaa !56
  %19 = icmp ne i64 %18, 0
  br i1 %19, label %20, label %79

20:                                               ; preds = %17
  call void @llvm.lifetime.start.p0(i64 8, ptr %8) #15
  %21 = load ptr, ptr %5, align 8, !tbaa !53
  %22 = getelementptr inbounds nuw %struct._rio, ptr %21, i32 0, i32 8
  %23 = load i64, ptr %22, align 8, !tbaa !59
  %24 = icmp ne i64 %23, 0
  br i1 %24, label %25, label %35

25:                                               ; preds = %20
  %26 = load ptr, ptr %5, align 8, !tbaa !53
  %27 = getelementptr inbounds nuw %struct._rio, ptr %26, i32 0, i32 8
  %28 = load i64, ptr %27, align 8, !tbaa !59
  %29 = load i64, ptr %7, align 8, !tbaa !56
  %30 = icmp ult i64 %28, %29
  br i1 %30, label %31, label %35

31:                                               ; preds = %25
  %32 = load ptr, ptr %5, align 8, !tbaa !53
  %33 = getelementptr inbounds nuw %struct._rio, ptr %32, i32 0, i32 8
  %34 = load i64, ptr %33, align 8, !tbaa !59
  br label %37

35:                                               ; preds = %25, %20
  %36 = load i64, ptr %7, align 8, !tbaa !56
  br label %37

37:                                               ; preds = %35, %31
  %38 = phi i64 [ %34, %31 ], [ %36, %35 ]
  store i64 %38, ptr %8, align 8, !tbaa !56
  %39 = load ptr, ptr %5, align 8, !tbaa !53
  %40 = getelementptr inbounds nuw %struct._rio, ptr %39, i32 0, i32 0
  %41 = load ptr, ptr %40, align 8, !tbaa !66
  %42 = load ptr, ptr %5, align 8, !tbaa !53
  %43 = load ptr, ptr %6, align 8, !tbaa !55
  %44 = load i64, ptr %8, align 8, !tbaa !56
  %45 = call i64 %41(ptr noundef %42, ptr noundef %43, i64 noundef %44)
  %46 = icmp eq i64 %45, 0
  br i1 %46, label %47, label %52

47:                                               ; preds = %37
  %48 = load ptr, ptr %5, align 8, !tbaa !53
  %49 = getelementptr inbounds nuw %struct._rio, ptr %48, i32 0, i32 6
  %50 = load i64, ptr %49, align 8, !tbaa !57
  %51 = or i64 %50, 1
  store i64 %51, ptr %49, align 8, !tbaa !57
  store i64 0, ptr %4, align 8
  store i32 1, ptr %9, align 4
  br label %76

52:                                               ; preds = %37
  %53 = load ptr, ptr %5, align 8, !tbaa !53
  %54 = getelementptr inbounds nuw %struct._rio, ptr %53, i32 0, i32 4
  %55 = load ptr, ptr %54, align 8, !tbaa !60
  %56 = icmp ne ptr %55, null
  br i1 %56, label %57, label %64

57:                                               ; preds = %52
  %58 = load ptr, ptr %5, align 8, !tbaa !53
  %59 = getelementptr inbounds nuw %struct._rio, ptr %58, i32 0, i32 4
  %60 = load ptr, ptr %59, align 8, !tbaa !60
  %61 = load ptr, ptr %5, align 8, !tbaa !53
  %62 = load ptr, ptr %6, align 8, !tbaa !55
  %63 = load i64, ptr %8, align 8, !tbaa !56
  call void %60(ptr noundef %61, ptr noundef %62, i64 noundef %63)
  br label %64

64:                                               ; preds = %57, %52
  %65 = load ptr, ptr %6, align 8, !tbaa !55
  %66 = load i64, ptr %8, align 8, !tbaa !56
  %67 = getelementptr inbounds nuw i8, ptr %65, i64 %66
  store ptr %67, ptr %6, align 8, !tbaa !55
  %68 = load i64, ptr %8, align 8, !tbaa !56
  %69 = load i64, ptr %7, align 8, !tbaa !56
  %70 = sub i64 %69, %68
  store i64 %70, ptr %7, align 8, !tbaa !56
  %71 = load i64, ptr %8, align 8, !tbaa !56
  %72 = load ptr, ptr %5, align 8, !tbaa !53
  %73 = getelementptr inbounds nuw %struct._rio, ptr %72, i32 0, i32 7
  %74 = load i64, ptr %73, align 8, !tbaa !62
  %75 = add i64 %74, %71
  store i64 %75, ptr %73, align 8, !tbaa !62
  store i32 0, ptr %9, align 4
  br label %76

76:                                               ; preds = %64, %47
  call void @llvm.lifetime.end.p0(i64 8, ptr %8) #15
  %77 = load i32, ptr %9, align 4
  switch i32 %77, label %82 [
    i32 0, label %78
    i32 1, label %80
  ]

78:                                               ; preds = %76
  br label %17, !llvm.loop !67

79:                                               ; preds = %17
  store i64 1, ptr %4, align 8
  br label %80

80:                                               ; preds = %79, %76, %15
  %81 = load i64, ptr %4, align 8
  ret i64 %81

82:                                               ; preds = %76
  unreachable
}

; Function Attrs: nounwind uwtable
define dso_local i32 @rdbLoadDoubleValue(ptr noundef %0, ptr noundef %1) #0 {
  %3 = alloca i32, align 4
  %4 = alloca ptr, align 8
  %5 = alloca ptr, align 8
  %6 = alloca [256 x i8], align 16
  %7 = alloca i8, align 1
  %8 = alloca i32, align 4
  store ptr %0, ptr %4, align 8, !tbaa !53
  store ptr %1, ptr %5, align 8, !tbaa !80
  call void @llvm.lifetime.start.p0(i64 256, ptr %6) #15
  call void @llvm.lifetime.start.p0(i64 1, ptr %7) #15
  %9 = load ptr, ptr %4, align 8, !tbaa !53
  %10 = call i64 @rioRead(ptr noundef %9, ptr noundef %7, i64 noundef 1)
  %11 = icmp eq i64 %10, 0
  br i1 %11, label %12, label %13

12:                                               ; preds = %2
  store i32 -1, ptr %3, align 4
  store i32 1, ptr %8, align 4
  br label %43

13:                                               ; preds = %2
  %14 = load i8, ptr %7, align 1, !tbaa !65
  %15 = zext i8 %14 to i32
  switch i32 %15, label %25 [
    i32 255, label %16
    i32 254, label %19
    i32 253, label %22
  ]

16:                                               ; preds = %13
  %17 = load double, ptr @R_NegInf, align 8, !tbaa !79
  %18 = load ptr, ptr %5, align 8, !tbaa !80
  store double %17, ptr %18, align 8, !tbaa !79
  store i32 0, ptr %3, align 4
  store i32 1, ptr %8, align 4
  br label %43

19:                                               ; preds = %13
  %20 = load double, ptr @R_PosInf, align 8, !tbaa !79
  %21 = load ptr, ptr %5, align 8, !tbaa !80
  store double %20, ptr %21, align 8, !tbaa !79
  store i32 0, ptr %3, align 4
  store i32 1, ptr %8, align 4
  br label %43

22:                                               ; preds = %13
  %23 = load double, ptr @R_Nan, align 8, !tbaa !79
  %24 = load ptr, ptr %5, align 8, !tbaa !80
  store double %23, ptr %24, align 8, !tbaa !79
  store i32 0, ptr %3, align 4
  store i32 1, ptr %8, align 4
  br label %43

25:                                               ; preds = %13
  %26 = load ptr, ptr %4, align 8, !tbaa !53
  %27 = getelementptr inbounds [256 x i8], ptr %6, i64 0, i64 0
  %28 = load i8, ptr %7, align 1, !tbaa !65
  %29 = zext i8 %28 to i64
  %30 = call i64 @rioRead(ptr noundef %26, ptr noundef %27, i64 noundef %29)
  %31 = icmp eq i64 %30, 0
  br i1 %31, label %32, label %33

32:                                               ; preds = %25
  store i32 -1, ptr %3, align 4
  store i32 1, ptr %8, align 4
  br label %43

33:                                               ; preds = %25
  %34 = load i8, ptr %7, align 1, !tbaa !65
  %35 = zext i8 %34 to i64
  %36 = getelementptr inbounds nuw [256 x i8], ptr %6, i64 0, i64 %35
  store i8 0, ptr %36, align 1, !tbaa !65
  %37 = getelementptr inbounds [256 x i8], ptr %6, i64 0, i64 0
  %38 = load ptr, ptr %5, align 8, !tbaa !80
  %39 = call i32 (ptr, ptr, ...) @__isoc99_sscanf(ptr noundef %37, ptr noundef @.str.16, ptr noundef %38) #15
  %40 = icmp ne i32 %39, 1
  br i1 %40, label %41, label %42

41:                                               ; preds = %33
  store i32 -1, ptr %3, align 4
  store i32 1, ptr %8, align 4
  br label %43

42:                                               ; preds = %33
  store i32 0, ptr %3, align 4
  store i32 1, ptr %8, align 4
  br label %43

43:                                               ; preds = %42, %41, %32, %22, %19, %16, %12
  call void @llvm.lifetime.end.p0(i64 1, ptr %7) #15
  call void @llvm.lifetime.end.p0(i64 256, ptr %6) #15
  %44 = load i32, ptr %3, align 4
  ret i32 %44
}