; Function Attrs: nounwind uwtable
define dso_local range(i32 -1, 1) i32 @rdbLoadDoubleValue(ptr noundef %0, ptr noundef %1) local_unnamed_addr #0 {
  %3 = alloca [256 x i8], align 16
  %4 = alloca i8, align 1
  call void @llvm.lifetime.start.p0(i64 256, ptr nonnull %3) #23
  call void @llvm.lifetime.start.p0(i64 1, ptr nonnull %4) #23
  %5 = getelementptr inbounds nuw i8, ptr %0, i64 48
  %6 = load i64, ptr %5, align 8, !tbaa !53
  %7 = and i64 %6, 5
  %.not.i = icmp eq i64 %7, 0
  br i1 %.not.i, label %.preheader.i, label %rioRead.exit.thread

.preheader.i:                                     ; preds = %2
  %8 = getelementptr inbounds nuw i8, ptr %0, i64 64
  %9 = getelementptr inbounds nuw i8, ptr %0, i64 32
  %10 = getelementptr inbounds nuw i8, ptr %0, i64 56
  br label %11

11:                                               ; preds = %23, %.preheader.i
  %.02539.i = phi i64 [ 1, %.preheader.i ], [ %25, %23 ]
  %.02738.i = phi ptr [ %4, %.preheader.i ], [ %24, %23 ]
  %12 = load i64, ptr %8, align 8, !tbaa !55
  %.not32.not.i = icmp eq i64 %12, 0
  %13 = call i64 @llvm.umin.i64(i64 %12, i64 %.02539.i)
  %14 = select i1 %.not32.not.i, i64 %.02539.i, i64 %13
  %15 = load ptr, ptr %0, align 8, !tbaa !60
  %16 = call i64 %15(ptr noundef nonnull %0, ptr noundef %.02738.i, i64 noundef %14) #23
  %17 = icmp eq i64 %16, 0
  br i1 %17, label %.thread.i, label %20

.thread.i:                                        ; preds = %11
  %18 = load i64, ptr %5, align 8, !tbaa !53
  %19 = or i64 %18, 1
  store i64 %19, ptr %5, align 8, !tbaa !53
  br label %rioRead.exit.thread

20:                                               ; preds = %11
  %21 = load ptr, ptr %9, align 8, !tbaa !56
  %.not33.i = icmp eq ptr %21, null
  br i1 %.not33.i, label %23, label %22

22:                                               ; preds = %20
  call void %21(ptr noundef nonnull %0, ptr noundef %.02738.i, i64 noundef %14) #23
  br label %23

23:                                               ; preds = %22, %20
  %24 = getelementptr inbounds nuw i8, ptr %.02738.i, i64 %14
  %25 = sub i64 %.02539.i, %14
  %26 = load i64, ptr %10, align 8, !tbaa !58
  %27 = add i64 %26, %14
  store i64 %27, ptr %10, align 8, !tbaa !58
  %.not31.i = icmp eq i64 %25, 0
  br i1 %.not31.i, label %rioRead.exit, label %11

rioRead.exit:                                     ; preds = %23
  %28 = load i8, ptr %4, align 1, !tbaa !59
  switch i8 %28, label %35 [
    i8 -1, label %29
    i8 -2, label %31
    i8 -3, label %33
  ]

29:                                               ; preds = %rioRead.exit
  %30 = load double, ptr @R_NegInf, align 8, !tbaa !69
  store double %30, ptr %1, align 8, !tbaa !69
  br label %rioRead.exit.thread

31:                                               ; preds = %rioRead.exit
  %32 = load double, ptr @R_PosInf, align 8, !tbaa !69
  store double %32, ptr %1, align 8, !tbaa !69
  br label %rioRead.exit.thread

33:                                               ; preds = %rioRead.exit
  %34 = load double, ptr @R_Nan, align 8, !tbaa !69
  store double %34, ptr %1, align 8, !tbaa !69
  br label %rioRead.exit.thread

35:                                               ; preds = %rioRead.exit
  %36 = load i64, ptr %5, align 8, !tbaa !53
  %37 = and i64 %36, 5
  %.not.i6 = icmp eq i64 %37, 0
  br i1 %.not.i6, label %.preheader.i8, label %rioRead.exit.thread

.preheader.i8:                                    ; preds = %35
  %.not3137.i = icmp eq i8 %28, 0
  br i1 %.not3137.i, label %rioRead.exit15, label %.lr.ph.i.preheader

.lr.ph.i.preheader:                               ; preds = %.preheader.i8
  %38 = zext i8 %28 to i64
  br label %.lr.ph.i

.lr.ph.i:                                         ; preds = %.lr.ph.i.preheader, %50
  %.02539.i9 = phi i64 [ %52, %50 ], [ %38, %.lr.ph.i.preheader ]
  %.02738.i10 = phi ptr [ %51, %50 ], [ %3, %.lr.ph.i.preheader ]
  %39 = load i64, ptr %8, align 8, !tbaa !55
  %.not32.not.i11 = icmp eq i64 %39, 0
  %40 = call i64 @llvm.umin.i64(i64 %39, i64 %.02539.i9)
  %41 = select i1 %.not32.not.i11, i64 %.02539.i9, i64 %40
  %42 = load ptr, ptr %0, align 8, !tbaa !60
  %43 = call i64 %42(ptr noundef nonnull %0, ptr noundef %.02738.i10, i64 noundef %41) #23
  %44 = icmp eq i64 %43, 0
  br i1 %44, label %.thread.i14, label %47

.thread.i14:                                      ; preds = %.lr.ph.i
  %45 = load i64, ptr %5, align 8, !tbaa !53
  %46 = or i64 %45, 1
  store i64 %46, ptr %5, align 8, !tbaa !53
  br label %rioRead.exit.thread

47:                                               ; preds = %.lr.ph.i
  %48 = load ptr, ptr %9, align 8, !tbaa !56
  %.not33.i12 = icmp eq ptr %48, null
  br i1 %.not33.i12, label %50, label %49

49:                                               ; preds = %47
  call void %48(ptr noundef nonnull %0, ptr noundef %.02738.i10, i64 noundef %41) #23
  br label %50

50:                                               ; preds = %49, %47
  %51 = getelementptr inbounds nuw i8, ptr %.02738.i10, i64 %41
  %52 = sub i64 %.02539.i9, %41
  %53 = load i64, ptr %10, align 8, !tbaa !58
  %54 = add i64 %53, %41
  store i64 %54, ptr %10, align 8, !tbaa !58
  %.not31.i13 = icmp eq i64 %52, 0
  br i1 %.not31.i13, label %rioRead.exit15.loopexit, label %.lr.ph.i

rioRead.exit15.loopexit:                          ; preds = %50
  %.pre = load i8, ptr %4, align 1, !tbaa !59
  %55 = zext i8 %.pre to i64
  br label %rioRead.exit15

rioRead.exit15:                                   ; preds = %rioRead.exit15.loopexit, %.preheader.i8
  %56 = phi i64 [ %55, %rioRead.exit15.loopexit ], [ 0, %.preheader.i8 ]
  %57 = getelementptr inbounds nuw [256 x i8], ptr %3, i64 0, i64 %56
  store i8 0, ptr %57, align 1, !tbaa !59
  %58 = call i32 (ptr, ptr, ...) @__isoc99_sscanf(ptr noundef nonnull %3, ptr noundef nonnull @.str.16, ptr noundef %1) #23
  %.not = icmp ne i32 %58, 1
  %. = sext i1 %.not to i32
  br label %rioRead.exit.thread

rioRead.exit.thread:                              ; preds = %.thread.i14, %35, %.thread.i, %2, %rioRead.exit15, %33, %31, %29
  %.0 = phi i32 [ 0, %33 ], [ 0, %31 ], [ 0, %29 ], [ %., %rioRead.exit15 ], [ -1, %2 ], [ -1, %.thread.i ], [ -1, %35 ], [ -1, %.thread.i14 ]
  call void @llvm.lifetime.end.p0(i64 1, ptr nonnull %4) #23
  call void @llvm.lifetime.end.p0(i64 256, ptr nonnull %3) #23
  ret i32 %.0
}